; Function Attrs: mustprogress nounwind uwtable
define hidden void @_ZN13contains_varsD2Ev(ptr nocapture noundef nonnull readonly align 8 dereferenceable(8) %this) unnamed_addr #5 align 2 personality ptr @__gxx_personality_v0 {
entry:
  %0 = load ptr, ptr %this, align 8
  %cmp.i = icmp eq ptr %0, null
  br i1 %cmp.i, label %invoke.cont, label %if.end.i

if.end.i:                                         ; preds = %entry
  %m_todo.i.i = getelementptr inbounds i8, ptr %0, i64 24
  %1 = load ptr, ptr %m_todo.i.i, align 8
  %tobool.not.i.i.i.i.i = icmp eq ptr %1, null
  br i1 %tobool.not.i.i.i.i.i, label %_ZN7svectorI15expr_delta_pairjED2Ev.exit.i.i, label %if.then.i.i.i.i.i

if.then.i.i.i.i.i:                                ; preds = %if.end.i
  %add.ptr.i.i.i.i.i.i = getelementptr inbounds i8, ptr %1, i64 -8
  invoke void @_ZN6memory10deallocateEPv(ptr noundef nonnull %add.ptr.i.i.i.i.i.i)
          to label %_ZN7svectorI15expr_delta_pairjED2Ev.exit.i.i unwind label %terminate.lpad.i.i.i.i

terminate.lpad.i.i.i.i:                           ; preds = %if.then.i.i.i.i.i
  %2 = landingpad { ptr, i32 }
          catch ptr null
  %3 = extractvalue { ptr, i32 } %2, 0
  tail call void @__clang_call_terminate(ptr %3) #14
  unreachable

_ZN7svectorI15expr_delta_pairjED2Ev.exit.i.i:     ; preds = %if.then.i.i.i.i.i, %if.end.i
  %4 = load ptr, ptr %0, align 8
  %cmp.i.i.i.i.i.i = icmp eq ptr %4, null
  br i1 %cmp.i.i.i.i.i.i, label %_ZN13contains_vars3impD2Ev.exit.i, label %for.cond.preheader.i.i.i.i.i.i

for.cond.preheader.i.i.i.i.i.i:                   ; preds = %_ZN7svectorI15expr_delta_pairjED2Ev.exit.i.i
  invoke void @_ZN6memory10deallocateEPv(ptr noundef nonnull %4)
          to label %_ZN13contains_vars3impD2Ev.exit.i unwind label %terminate.lpad.i.i1.i.i

terminate.lpad.i.i1.i.i:                          ; preds = %for.cond.preheader.i.i.i.i.i.i
  %5 = landingpad { ptr, i32 }
          catch ptr null
  %6 = extractvalue { ptr, i32 } %5, 0
  tail call void @__clang_call_terminate(ptr %6) #14
  unreachable

_ZN13contains_vars3impD2Ev.exit.i:                ; preds = %for.cond.preheader.i.i.i.i.i.i, %_ZN7svectorI15expr_delta_pairjED2Ev.exit.i.i
  store ptr null, ptr %0, align 8
  invoke void @_ZN6memory10deallocateEPv(ptr noundef nonnull %0)
          to label %invoke.cont unwind label %terminate.lpad

invoke.cont:                                      ; preds = %entry, %_ZN13contains_vars3impD2Ev.exit.i
  ret void

terminate.lpad:                                   ; preds = %_ZN13contains_vars3impD2Ev.exit.i
  %7 = landingpad { ptr, i32 }
          catch ptr null
  %8 = extractvalue { ptr, i32 } %7, 0
  tail call void @__clang_call_terminate(ptr %8) #14
  unreachable
}